target datalayout = "e-m:e-p270:32:32-p271:32:32-p272:64:64-i64:64-i128:128-f80:128-n8:16:32:64-S128"
target triple = "x86_64-pc-linux-gnu"

%struct.FT_Vector_ = type { i64, i64 }

; Function Attrs: nounwind uwtable
define internal i32 @FT_MulFix_x86_64(i32 noundef %0, i32 noundef %1) #0 {
  %3 = alloca i32, align 4
  %4 = alloca i32, align 4
  %5 = alloca i64, align 8
  %6 = alloca i64, align 8
  store i32 %0, ptr %3, align 4
  store i32 %1, ptr %4, align 4
  %7 = load i32, ptr %3, align 4
  %8 = sext i32 %7 to i64
  %9 = load i32, ptr %4, align 4
  %10 = sext i32 %9 to i64
  %11 = mul nsw i64 %8, %10
  store i64 %11, ptr %5, align 8
  %12 = load i64, ptr %5, align 8
  %13 = ashr i64 %12, 63
  store i64 %13, ptr %6, align 8
  %14 = load i64, ptr %6, align 8
  %15 = add nsw i64 32768, %14
  %16 = load i64, ptr %5, align 8
  %17 = add nsw i64 %16, %15
  store i64 %17, ptr %5, align 8
  %18 = load i64, ptr %5, align 8
  %19 = ashr i64 %18, 16
  %20 = trunc i64 %19 to i32
  ret i32 %20
}

; Function Attrs: nounwind uwtable
define internal void @tt_delta_interpolate(i32 noundef %0, i32 noundef %1, i32 noundef %2, i32 noundef %3, ptr noundef %4, ptr noundef %5) #0 {
  %7 = alloca i32, align 4
  %8 = alloca i32, align 4
  %9 = alloca i32, align 4
  %10 = alloca i32, align 4
  %11 = alloca ptr, align 8
  %12 = alloca ptr, align 8
  %13 = alloca i32, align 4
  %14 = alloca i32, align 4
  %15 = alloca i64, align 8
  %16 = alloca i64, align 8
  %17 = alloca i64, align 8
  %18 = alloca i64, align 8
  %19 = alloca i64, align 8
  %20 = alloca i64, align 8
  %21 = alloca i64, align 8
  %22 = alloca i64, align 8
  store i32 %0, ptr %7, align 4
  store i32 %1, ptr %8, align 4
  store i32 %2, ptr %9, align 4
  store i32 %3, ptr %10, align 4
  store ptr %4, ptr %11, align 8
  store ptr %5, ptr %12, align 8
  %23 = load i32, ptr %7, align 4
  %24 = load i32, ptr %8, align 4
  %25 = icmp sgt i32 %23, %24
  br i1 %25, label %26, label %27

26:                                               ; preds = %6
  br label %164

27:                                               ; preds = %6
  store i32 0, ptr %14, align 4
  br label %28

28:                                               ; preds = %161, %27
  %29 = load i32, ptr %14, align 4
  %30 = icmp sle i32 %29, 1
  br i1 %30, label %31, label %164

31:                                               ; preds = %28
  %32 = load ptr, ptr %11, align 8
  %33 = load i32, ptr %14, align 4
  %34 = sext i32 %33 to i64
  %35 = getelementptr inbounds i64, ptr %32, i64 %34
  store ptr %35, ptr %11, align 8
  %36 = load ptr, ptr %12, align 8
  %37 = load i32, ptr %14, align 4
  %38 = sext i32 %37 to i64
  %39 = getelementptr inbounds i64, ptr %36, i64 %38
  store ptr %39, ptr %12, align 8
  %40 = load ptr, ptr %11, align 8
  %41 = load i32, ptr %9, align 4
  %42 = sext i32 %41 to i64
  %43 = getelementptr inbounds %struct.FT_Vector_, ptr %40, i64 %42
  %44 = getelementptr inbounds %struct.FT_Vector_, ptr %43, i32 0, i32 0
  %45 = load i64, ptr %44, align 8
  %46 = load ptr, ptr %11, align 8
  %47 = load i32, ptr %10, align 4
  %48 = sext i32 %47 to i64
  %49 = getelementptr inbounds %struct.FT_Vector_, ptr %46, i64 %48
  %50 = getelementptr inbounds %struct.FT_Vector_, ptr %49, i32 0, i32 0
  %51 = load i64, ptr %50, align 8
  %52 = icmp sgt i64 %45, %51
  br i1 %52, label %53, label %57

53:                                               ; preds = %31
  %54 = load i32, ptr %9, align 4
  store i32 %54, ptr %13, align 4
  %55 = load i32, ptr %10, align 4
  store i32 %55, ptr %9, align 4
  %56 = load i32, ptr %13, align 4
  store i32 %56, ptr %10, align 4
  br label %57

57:                                               ; preds = %53, %31
  %58 = load ptr, ptr %11, align 8
  %59 = load i32, ptr %9, align 4
  %60 = sext i32 %59 to i64
  %61 = getelementptr inbounds %struct.FT_Vector_, ptr %58, i64 %60
  %62 = getelementptr inbounds %struct.FT_Vector_, ptr %61, i32 0, i32 0
  %63 = load i64, ptr %62, align 8
  store i64 %63, ptr %16, align 8
  %64 = load ptr, ptr %11, align 8
  %65 = load i32, ptr %10, align 4
  %66 = sext i32 %65 to i64
  %67 = getelementptr inbounds %struct.FT_Vector_, ptr %64, i64 %66
  %68 = getelementptr inbounds %struct.FT_Vector_, ptr %67, i32 0, i32 0
  %69 = load i64, ptr %68, align 8
  store i64 %69, ptr %17, align 8
  %70 = load ptr, ptr %12, align 8
  %71 = load i32, ptr %9, align 4
  %72 = sext i32 %71 to i64
  %73 = getelementptr inbounds %struct.FT_Vector_, ptr %70, i64 %72
  %74 = getelementptr inbounds %struct.FT_Vector_, ptr %73, i32 0, i32 0
  %75 = load i64, ptr %74, align 8
  store i64 %75, ptr %18, align 8
  %76 = load ptr, ptr %12, align 8
  %77 = load i32, ptr %10, align 4
  %78 = sext i32 %77 to i64
  %79 = getelementptr inbounds %struct.FT_Vector_, ptr %76, i64 %78
  %80 = getelementptr inbounds %struct.FT_Vector_, ptr %79, i32 0, i32 0
  %81 = load i64, ptr %80, align 8
  store i64 %81, ptr %19, align 8
  %82 = load i64, ptr %18, align 8
  %83 = load i64, ptr %16, align 8
  %84 = sub nsw i64 %82, %83
  store i64 %84, ptr %20, align 8
  %85 = load i64, ptr %19, align 8
  %86 = load i64, ptr %17, align 8
  %87 = sub nsw i64 %85, %86
  store i64 %87, ptr %21, align 8
  %88 = load i64, ptr %16, align 8
  %89 = load i64, ptr %17, align 8
  %90 = icmp ne i64 %88, %89
  br i1 %90, label %95, label %91

91:                                               ; preds = %57
  %92 = load i64, ptr %18, align 8
  %93 = load i64, ptr %19, align 8
  %94 = icmp eq i64 %92, %93
  br i1 %94, label %95, label %160

95:                                               ; preds = %91, %57
  %96 = load i64, ptr %16, align 8
  %97 = load i64, ptr %17, align 8
  %98 = icmp ne i64 %96, %97
  br i1 %98, label %99, label %107

99:                                               ; preds = %95
  %100 = load i64, ptr %19, align 8
  %101 = load i64, ptr %18, align 8
  %102 = sub nsw i64 %100, %101
  %103 = load i64, ptr %17, align 8
  %104 = load i64, ptr %16, align 8
  %105 = sub nsw i64 %103, %104
  %106 = call i64 @FT_DivFix(i64 noundef %102, i64 noundef %105)
  br label %108

107:                                              ; preds = %95
  br label %108

108:                                              ; preds = %107, %99
  %109 = phi i64 [ %106, %99 ], [ 0, %107 ]
  store i64 %109, ptr %22, align 8
  %110 = load i32, ptr %7, align 4
  store i32 %110, ptr %13, align 4
  br label %111

111:                                              ; preds = %156, %108
  %112 = load i32, ptr %13, align 4
  %113 = load i32, ptr %8, align 4
  %114 = icmp sle i32 %112, %113
  br i1 %114, label %115, label %159

115:                                              ; preds = %111
  %116 = load ptr, ptr %11, align 8
  %117 = load i32, ptr %13, align 4
  %118 = sext i32 %117 to i64
  %119 = getelementptr inbounds %struct.FT_Vector_, ptr %116, i64 %118
  %120 = getelementptr inbounds %struct.FT_Vector_, ptr %119, i32 0, i32 0
  %121 = load i64, ptr %120, align 8
  store i64 %121, ptr %15, align 8
  %122 = load i64, ptr %15, align 8
  %123 = load i64, ptr %16, align 8
  %124 = icmp sle i64 %122, %123
  br i1 %124, label %125, label %129

125:                                              ; preds = %115
  %126 = load i64, ptr %20, align 8
  %127 = load i64, ptr %15, align 8
  %128 = add nsw i64 %127, %126
  store i64 %128, ptr %15, align 8
  br label %149

129:                                              ; preds = %115
  %130 = load i64, ptr %15, align 8
  %131 = load i64, ptr %17, align 8
  %132 = icmp sge i64 %130, %131
  br i1 %132, label %133, label %137

133:                                              ; preds = %129
  %134 = load i64, ptr %21, align 8
  %135 = load i64, ptr %15, align 8
  %136 = add nsw i64 %135, %134
  store i64 %136, ptr %15, align 8
  br label %148

137:                                              ; preds = %129
  %138 = load i64, ptr %18, align 8
  %139 = load i64, ptr %15, align 8
  %140 = load i64, ptr %16, align 8
  %141 = sub nsw i64 %139, %140
  %142 = trunc i64 %141 to i32
  %143 = load i64, ptr %22, align 8
  %144 = trunc i64 %143 to i32
  %145 = call i32 @FT_MulFix_x86_64(i32 noundef %142, i32 noundef %144)
  %146 = sext i32 %145 to i64
  %147 = add nsw i64 %138, %146
  store i64 %147, ptr %15, align 8
  br label %148

148:                                              ; preds = %137, %133
  br label %149

149:                                              ; preds = %148, %125
  %150 = load i64, ptr %15, align 8
  %151 = load ptr, ptr %12, align 8
  %152 = load i32, ptr %13, align 4
  %153 = sext i32 %152 to i64
  %154 = getelementptr inbounds %struct.FT_Vector_, ptr %151, i64 %153
  %155 = getelementptr inbounds %struct.FT_Vector_, ptr %154, i32 0, i32 0
  store i64 %150, ptr %155, align 8
  br label %156

156:                                              ; preds = %149
  %157 = load i32, ptr %13, align 4
  %158 = add nsw i32 %157, 1
  store i32 %158, ptr %13, align 4
  br label %111, !llvm.loop !141

159:                                              ; preds = %111
  br label %160

160:                                              ; preds = %159, %91
  br label %161

161:                                              ; preds = %160
  %162 = load i32, ptr %14, align 4
  %163 = add nsw i32 %162, 1
  store i32 %163, ptr %14, align 4
  br label %28, !llvm.loop !142

164:                                              ; preds = %28, %26
  ret void
}