; Function Attrs: nounwind uwtable
define internal fastcc void @tt_delta_interpolate(i32 noundef %0, i32 noundef %1, i32 noundef %2, i32 noundef %3, ptr nocapture noundef readonly %4, ptr nocapture noundef %5) unnamed_addr #2 {
  %7 = icmp sgt i32 %0, %1
  br i1 %7, label %.loopexit78, label %.preheader.split.preheader

.preheader.split.preheader:                       ; preds = %6
  %8 = sext i32 %0 to i64
  %9 = add i32 %1, 1
  br label %.preheader.split

.preheader.split:                                 ; preds = %.preheader.split.preheader, %..loopexit_crit_edge
  %10 = phi i1 [ true, %.preheader.split.preheader ], [ false, %..loopexit_crit_edge ]
  %indvars.iv87 = phi i64 [ 0, %.preheader.split.preheader ], [ 1, %..loopexit_crit_edge ]
  %.085 = phi i32 [ %2, %.preheader.split.preheader ], [ %spec.select74, %..loopexit_crit_edge ]
  %.05784 = phi i32 [ %3, %.preheader.split.preheader ], [ %spec.select, %..loopexit_crit_edge ]
  %.05983 = phi ptr [ %4, %.preheader.split.preheader ], [ %11, %..loopexit_crit_edge ]
  %.06082 = phi ptr [ %5, %.preheader.split.preheader ], [ %12, %..loopexit_crit_edge ]
  %11 = getelementptr inbounds i64, ptr %.05983, i64 %indvars.iv87
  %12 = getelementptr inbounds i64, ptr %.06082, i64 %indvars.iv87
  %13 = sext i32 %.085 to i64
  %14 = getelementptr inbounds %struct.FT_Vector_, ptr %11, i64 %13
  %15 = load i64, ptr %14, align 8
  %16 = sext i32 %.05784 to i64
  %17 = getelementptr inbounds %struct.FT_Vector_, ptr %11, i64 %16
  %18 = load i64, ptr %17, align 8
  %19 = icmp sgt i64 %15, %18
  %spec.select = select i1 %19, i32 %.085, i32 %.05784
  %spec.select74 = select i1 %19, i32 %.05784, i32 %.085
  %20 = sext i32 %spec.select74 to i64
  %21 = getelementptr inbounds %struct.FT_Vector_, ptr %11, i64 %20
  %22 = load i64, ptr %21, align 8
  %23 = sext i32 %spec.select to i64
  %24 = getelementptr inbounds %struct.FT_Vector_, ptr %11, i64 %23
  %25 = load i64, ptr %24, align 8
  %26 = getelementptr inbounds %struct.FT_Vector_, ptr %12, i64 %20
  %27 = load i64, ptr %26, align 8
  %28 = getelementptr inbounds %struct.FT_Vector_, ptr %12, i64 %23
  %29 = load i64, ptr %28, align 8
  %30 = sub i64 %27, %22
  %31 = sub i64 %29, %25
  %.not = icmp ne i64 %22, %25
  %32 = icmp eq i64 %27, %29
  %or.cond = select i1 %.not, i1 true, i1 %32
  br i1 %or.cond, label %33, label %..loopexit_crit_edge

33:                                               ; preds = %.preheader.split
  br i1 %.not, label %34, label %.lr.ph

34:                                               ; preds = %33
  %35 = sub nsw i64 %29, %27
  %36 = sub nsw i64 %25, %22
  %37 = tail call i64 @FT_DivFix(i64 noundef %35, i64 noundef %36) #22
  br label %.lr.ph

.lr.ph:                                           ; preds = %33, %34
  %38 = phi i64 [ %37, %34 ], [ 0, %33 ]
  %sext75 = shl i64 %38, 32
  %39 = ashr exact i64 %sext75, 32
  br label %40

40:                                               ; preds = %.lr.ph, %58
  %indvars.iv = phi i64 [ %8, %.lr.ph ], [ %indvars.iv.next, %58 ]
  %41 = getelementptr inbounds %struct.FT_Vector_, ptr %11, i64 %indvars.iv
  %42 = load i64, ptr %41, align 8
  %.not72 = icmp sgt i64 %42, %22
  br i1 %.not72, label %45, label %43

43:                                               ; preds = %40
  %44 = add nsw i64 %30, %42
  br label %58

45:                                               ; preds = %40
  %.not73 = icmp slt i64 %42, %25
  br i1 %.not73, label %48, label %46

46:                                               ; preds = %45
  %47 = add nsw i64 %31, %42
  br label %58

48:                                               ; preds = %45
  %49 = sub nsw i64 %42, %22
  %sext = shl i64 %49, 32
  %50 = ashr exact i64 %sext, 32
  %51 = mul nsw i64 %50, %39
  %52 = ashr i64 %51, 63
  %53 = add nsw i64 %51, 32768
  %54 = add nsw i64 %53, %52
  %55 = shl i64 %54, 16
  %56 = ashr i64 %55, 32
  %57 = add nsw i64 %56, %27
  br label %58

58:                                               ; preds = %46, %48, %43
  %.063 = phi i64 [ %44, %43 ], [ %47, %46 ], [ %57, %48 ]
  %59 = getelementptr inbounds %struct.FT_Vector_, ptr %12, i64 %indvars.iv
  store i64 %.063, ptr %59, align 8
  %indvars.iv.next = add nsw i64 %indvars.iv, 1
  %lftr.wideiv = trunc i64 %indvars.iv.next to i32
  %exitcond.not = icmp eq i32 %9, %lftr.wideiv
  br i1 %exitcond.not, label %..loopexit_crit_edge, label %40, !llvm.loop !137

..loopexit_crit_edge:                             ; preds = %58, %.preheader.split
  br i1 %10, label %.preheader.split, label %.loopexit78, !llvm.loop !138

.loopexit78:                                      ; preds = %..loopexit_crit_edge, %6
  ret void
}